; Function Attrs: nounwind uwtable
define void @Hop_ObjCollectMulti_rec(ptr noundef %0, ptr noundef %1, ptr noundef captures(none) %2) local_unnamed_addr #3 {
  %4 = getelementptr i8, ptr %0, i64 32
  br label %tailrecurse

tailrecurse:                                      ; preds = %53, %3
  %.tr23 = phi ptr [ %1, %3 ], [ %.val21, %53 ]
  %.not = icmp eq ptr %0, %.tr23
  br i1 %.not, label %53, label %5

5:                                                ; preds = %tailrecurse
  %6 = ptrtoint ptr %.tr23 to i64
  %7 = and i64 %6, 1
  %.not15 = icmp eq i64 %7, 0
  br i1 %.not15, label %8, label %13

8:                                                ; preds = %5
  %9 = getelementptr i8, ptr %.tr23, i64 32
  %.val = load i32, ptr %9, align 8
  %10 = and i32 %.val, 7
  %.not22 = icmp eq i32 %10, 2
  br i1 %.not22, label %13, label %11

11:                                               ; preds = %8
  %.val18 = load i32, ptr %4, align 8
  %12 = and i32 %.val18, 7
  %.not17 = icmp eq i32 %12, %10
  br i1 %.not17, label %53, label %13

13:                                               ; preds = %11, %8, %5
  %14 = getelementptr inbounds nuw i8, ptr %2, i64 4
  %15 = load i32, ptr %14, align 4, !tbaa !17
  %16 = icmp sgt i32 %15, 0
  br i1 %16, label %.lr.ph.i, label %._crit_edge.i

.lr.ph.i:                                         ; preds = %13
  %17 = getelementptr inbounds nuw i8, ptr %2, i64 8
  %18 = load ptr, ptr %17, align 8, !tbaa !20
  %wide.trip.count.i = zext nneg i32 %15 to i64
  br label %20

19:                                               ; preds = %20
  %indvars.iv.next.i = add nuw nsw i64 %indvars.iv.i, 1
  %exitcond.not.i = icmp eq i64 %indvars.iv.next.i, %wide.trip.count.i
  br i1 %exitcond.not.i, label %._crit_edge.i, label %20, !llvm.loop !31

20:                                               ; preds = %19, %.lr.ph.i
  %indvars.iv.i = phi i64 [ 0, %.lr.ph.i ], [ %indvars.iv.next.i, %19 ]
  %21 = getelementptr inbounds nuw ptr, ptr %18, i64 %indvars.iv.i
  %22 = load ptr, ptr %21, align 8, !tbaa !21
  %23 = icmp eq ptr %22, %.tr23
  br i1 %23, label %Vec_PtrPushUnique.exit, label %19

._crit_edge.i:                                    ; preds = %19, %13
  %24 = load i32, ptr %2, align 8, !tbaa !32
  %25 = icmp eq i32 %15, %24
  br i1 %25, label %26, label %.Vec_PtrGrow.exit11_crit_edge.i.i

.Vec_PtrGrow.exit11_crit_edge.i.i:                ; preds = %._crit_edge.i
  %.phi.trans.insert.i.i = getelementptr inbounds nuw i8, ptr %2, i64 8
  %.pre.i.i = load ptr, ptr %.phi.trans.insert.i.i, align 8, !tbaa !20
  br label %Vec_PtrPush.exit.i

26:                                               ; preds = %._crit_edge.i
  %27 = icmp slt i32 %15, 16
  br i1 %27, label %28, label %36

28:                                               ; preds = %26
  %29 = getelementptr inbounds nuw i8, ptr %2, i64 8
  %30 = load ptr, ptr %29, align 8, !tbaa !20
  %.not9.i.i.i = icmp eq ptr %30, null
  br i1 %.not9.i.i.i, label %33, label %31

31:                                               ; preds = %28
  %32 = tail call dereferenceable_or_null(128) ptr @realloc(ptr noundef nonnull %30, i64 noundef 128) #14
  br label %Vec_PtrGrow.exit.i.i

33:                                               ; preds = %28
  %34 = tail call noalias dereferenceable_or_null(128) ptr @malloc(i64 noundef 128) #15
  br label %Vec_PtrGrow.exit.i.i

Vec_PtrGrow.exit.i.i:                             ; preds = %33, %31
  %35 = phi ptr [ %32, %31 ], [ %34, %33 ]
  store ptr %35, ptr %29, align 8, !tbaa !20
  store i32 16, ptr %2, align 8, !tbaa !32
  br label %Vec_PtrPush.exit.i

36:                                               ; preds = %26
  %37 = shl nuw nsw i32 %15, 1
  %38 = getelementptr inbounds nuw i8, ptr %2, i64 8
  %39 = load ptr, ptr %38, align 8, !tbaa !20
  %.not9.i10.i.i = icmp eq ptr %39, null
  %40 = zext nneg i32 %37 to i64
  %41 = shl nuw nsw i64 %40, 3
  br i1 %.not9.i10.i.i, label %44, label %42

42:                                               ; preds = %36
  %43 = tail call ptr @realloc(ptr noundef nonnull %39, i64 noundef %41) #14
  br label %46

44:                                               ; preds = %36
  %45 = tail call noalias ptr @malloc(i64 noundef %41) #15
  br label %46

46:                                               ; preds = %44, %42
  %47 = phi ptr [ %43, %42 ], [ %45, %44 ]
  store ptr %47, ptr %38, align 8, !tbaa !20
  store i32 %37, ptr %2, align 8, !tbaa !32
  br label %Vec_PtrPush.exit.i

Vec_PtrPush.exit.i:                               ; preds = %46, %Vec_PtrGrow.exit.i.i, %.Vec_PtrGrow.exit11_crit_edge.i.i
  %48 = phi ptr [ %.pre.i.i, %.Vec_PtrGrow.exit11_crit_edge.i.i ], [ %47, %46 ], [ %35, %Vec_PtrGrow.exit.i.i ]
  %49 = load i32, ptr %14, align 4, !tbaa !17
  %50 = add nsw i32 %49, 1
  store i32 %50, ptr %14, align 4, !tbaa !17
  %51 = sext i32 %49 to i64
  %52 = getelementptr inbounds ptr, ptr %48, i64 %51
  store ptr %.tr23, ptr %52, align 8, !tbaa !21
  br label %Vec_PtrPushUnique.exit

53:                                               ; preds = %11, %tailrecurse
  %54 = getelementptr i8, ptr %.tr23, i64 16
  %.val20 = load ptr, ptr %54, align 8, !tbaa !29
  tail call void @Hop_ObjCollectMulti_rec(ptr noundef %0, ptr noundef %.val20, ptr noundef %2)
  %55 = getelementptr i8, ptr %.tr23, i64 24
  %.val21 = load ptr, ptr %55, align 8, !tbaa !30
  br label %tailrecurse

Vec_PtrPushUnique.exit:                           ; preds = %20, %Vec_PtrPush.exit.i
  ret void
}